target datalayout = "e-m:e-p270:32:32-p271:32:32-p272:64:64-i64:64-i128:128-f80:128-n8:16:32:64-S128"
target triple = "x86_64-pc-linux-gnu"

%struct.H5O_fill_t = type { %struct.H5O_shared_t, i32, ptr, i64, ptr, i32, i32, i8 }
%struct.H5O_shared_t = type { i32, ptr, i32, %union.anon }
%union.anon = type { %struct.H5O_mesg_loc_t }
%struct.H5O_mesg_loc_t = type { i32, i64 }

@H5P_init_g = external global i8, align 1
@H5_libterm_g = external global i8, align 1

; Function Attrs: nounwind uwtable
define i32 @H5P_fill_value_cmp(ptr noundef %0, ptr noundef %1, i64 noundef %2) #0 {
  %4 = alloca ptr, align 8
  %5 = alloca ptr, align 8
  %6 = alloca i64, align 8
  %7 = alloca ptr, align 8
  %8 = alloca ptr, align 8
  %9 = alloca i32, align 4
  %10 = alloca i32, align 4
  store ptr %0, ptr %4, align 8, !tbaa !16
  store ptr %1, ptr %5, align 8, !tbaa !16
  store i64 %2, ptr %6, align 8, !tbaa !14
  call void @llvm.lifetime.start.p0(i64 8, ptr %7) #11
  %11 = load ptr, ptr %4, align 8, !tbaa !16
  store ptr %11, ptr %7, align 8, !tbaa !17
  call void @llvm.lifetime.start.p0(i64 8, ptr %8) #11
  %12 = load ptr, ptr %5, align 8, !tbaa !16
  store ptr %12, ptr %8, align 8, !tbaa !17
  call void @llvm.lifetime.start.p0(i64 4, ptr %9) #11
  call void @llvm.lifetime.start.p0(i64 4, ptr %10) #11
  store i32 0, ptr %10, align 4, !tbaa !8
  %13 = load i8, ptr @H5P_init_g, align 1, !tbaa !10, !range !12, !noundef !13
  %14 = trunc i8 %13 to i1
  br i1 %14, label %19, label %15

15:                                               ; preds = %3
  %16 = load i8, ptr @H5_libterm_g, align 1, !tbaa !10, !range !12, !noundef !13
  %17 = trunc i8 %16 to i1
  %18 = xor i1 %17, true
  br label %19

19:                                               ; preds = %15, %3
  %20 = phi i1 [ true, %3 ], [ %18, %15 ]
  %21 = xor i1 %20, true
  %22 = xor i1 %21, true
  %23 = zext i1 %22 to i32
  %24 = sext i32 %23 to i64
  %25 = call i64 @llvm.expect.i64(i64 %24, i64 1)
  %26 = icmp ne i64 %25, 0
  br i1 %26, label %27, label %200

27:                                               ; preds = %19
  %28 = load ptr, ptr %7, align 8, !tbaa !17
  %29 = getelementptr inbounds nuw %struct.H5O_fill_t, ptr %28, i32 0, i32 3
  %30 = load i64, ptr %29, align 8, !tbaa !19
  %31 = load ptr, ptr %8, align 8, !tbaa !17
  %32 = getelementptr inbounds nuw %struct.H5O_fill_t, ptr %31, i32 0, i32 3
  %33 = load i64, ptr %32, align 8, !tbaa !19
  %34 = icmp slt i64 %30, %33
  br i1 %34, label %35, label %39

35:                                               ; preds = %27
  br label %36

36:                                               ; preds = %35
  store i32 -1, ptr %10, align 4, !tbaa !8
  br label %199

37:                                               ; No predecessors!
  br label %38

38:                                               ; preds = %37
  br label %39

39:                                               ; preds = %38, %27
  %40 = load ptr, ptr %7, align 8, !tbaa !17
  %41 = getelementptr inbounds nuw %struct.H5O_fill_t, ptr %40, i32 0, i32 3
  %42 = load i64, ptr %41, align 8, !tbaa !19
  %43 = load ptr, ptr %8, align 8, !tbaa !17
  %44 = getelementptr inbounds nuw %struct.H5O_fill_t, ptr %43, i32 0, i32 3
  %45 = load i64, ptr %44, align 8, !tbaa !19
  %46 = icmp sgt i64 %42, %45
  br i1 %46, label %47, label %51

47:                                               ; preds = %39
  br label %48

48:                                               ; preds = %47
  store i32 1, ptr %10, align 4, !tbaa !8
  br label %199

49:                                               ; No predecessors!
  br label %50

50:                                               ; preds = %49
  br label %51

51:                                               ; preds = %50, %39
  %52 = load ptr, ptr %7, align 8, !tbaa !17
  %53 = getelementptr inbounds nuw %struct.H5O_fill_t, ptr %52, i32 0, i32 2
  %54 = load ptr, ptr %53, align 8, !tbaa !24
  %55 = icmp eq ptr %54, null
  br i1 %55, label %56, label %65

56:                                               ; preds = %51
  %57 = load ptr, ptr %8, align 8, !tbaa !17
  %58 = getelementptr inbounds nuw %struct.H5O_fill_t, ptr %57, i32 0, i32 2
  %59 = load ptr, ptr %58, align 8, !tbaa !24
  %60 = icmp ne ptr %59, null
  br i1 %60, label %61, label %65

61:                                               ; preds = %56
  br label %62

62:                                               ; preds = %61
  store i32 -1, ptr %10, align 4, !tbaa !8
  br label %199

63:                                               ; No predecessors!
  br label %64

64:                                               ; preds = %63
  br label %65

65:                                               ; preds = %64, %56, %51
  %66 = load ptr, ptr %7, align 8, !tbaa !17
  %67 = getelementptr inbounds nuw %struct.H5O_fill_t, ptr %66, i32 0, i32 2
  %68 = load ptr, ptr %67, align 8, !tbaa !24
  %69 = icmp ne ptr %68, null
  br i1 %69, label %70, label %79

70:                                               ; preds = %65
  %71 = load ptr, ptr %8, align 8, !tbaa !17
  %72 = getelementptr inbounds nuw %struct.H5O_fill_t, ptr %71, i32 0, i32 2
  %73 = load ptr, ptr %72, align 8, !tbaa !24
  %74 = icmp eq ptr %73, null
  br i1 %74, label %75, label %79

75:                                               ; preds = %70
  br label %76

76:                                               ; preds = %75
  store i32 1, ptr %10, align 4, !tbaa !8
  br label %199

77:                                               ; No predecessors!
  br label %78

78:                                               ; preds = %77
  br label %79

79:                                               ; preds = %78, %70, %65
  %80 = load ptr, ptr %7, align 8, !tbaa !17
  %81 = getelementptr inbounds nuw %struct.H5O_fill_t, ptr %80, i32 0, i32 2
  %82 = load ptr, ptr %81, align 8, !tbaa !24
  %83 = icmp ne ptr %82, null
  br i1 %83, label %84, label %99

84:                                               ; preds = %79
  %85 = load ptr, ptr %7, align 8, !tbaa !17
  %86 = getelementptr inbounds nuw %struct.H5O_fill_t, ptr %85, i32 0, i32 2
  %87 = load ptr, ptr %86, align 8, !tbaa !24
  %88 = load ptr, ptr %8, align 8, !tbaa !17
  %89 = getelementptr inbounds nuw %struct.H5O_fill_t, ptr %88, i32 0, i32 2
  %90 = load ptr, ptr %89, align 8, !tbaa !24
  %91 = call i32 @H5T_cmp(ptr noundef %87, ptr noundef %90, i1 noundef zeroext false)
  store i32 %91, ptr %9, align 4, !tbaa !8
  %92 = icmp ne i32 %91, 0
  br i1 %92, label %93, label %98

93:                                               ; preds = %84
  br label %94

94:                                               ; preds = %93
  %95 = load i32, ptr %9, align 4, !tbaa !8
  store i32 %95, ptr %10, align 4, !tbaa !8
  br label %199

96:                                               ; No predecessors!
  br label %97

97:                                               ; preds = %96
  br label %98

98:                                               ; preds = %97, %84
  br label %99

99:                                               ; preds = %98, %79
  %100 = load ptr, ptr %7, align 8, !tbaa !17
  %101 = getelementptr inbounds nuw %struct.H5O_fill_t, ptr %100, i32 0, i32 4
  %102 = load ptr, ptr %101, align 8, !tbaa !25
  %103 = icmp eq ptr %102, null
  br i1 %103, label %104, label %113

104:                                              ; preds = %99
  %105 = load ptr, ptr %8, align 8, !tbaa !17
  %106 = getelementptr inbounds nuw %struct.H5O_fill_t, ptr %105, i32 0, i32 4
  %107 = load ptr, ptr %106, align 8, !tbaa !25
  %108 = icmp ne ptr %107, null
  br i1 %108, label %109, label %113

109:                                              ; preds = %104
  br label %110

110:                                              ; preds = %109
  store i32 -1, ptr %10, align 4, !tbaa !8
  br label %199

111:                                              ; No predecessors!
  br label %112

112:                                              ; preds = %111
  br label %113

113:                                              ; preds = %112, %104, %99
  %114 = load ptr, ptr %7, align 8, !tbaa !17
  %115 = getelementptr inbounds nuw %struct.H5O_fill_t, ptr %114, i32 0, i32 4
  %116 = load ptr, ptr %115, align 8, !tbaa !25
  %117 = icmp ne ptr %116, null
  br i1 %117, label %118, label %127

118:                                              ; preds = %113
  %119 = load ptr, ptr %8, align 8, !tbaa !17
  %120 = getelementptr inbounds nuw %struct.H5O_fill_t, ptr %119, i32 0, i32 4
  %121 = load ptr, ptr %120, align 8, !tbaa !25
  %122 = icmp eq ptr %121, null
  br i1 %122, label %123, label %127

123:                                              ; preds = %118
  br label %124

124:                                              ; preds = %123
  store i32 1, ptr %10, align 4, !tbaa !8
  br label %199

125:                                              ; No predecessors!
  br label %126

126:                                              ; preds = %125
  br label %127

127:                                              ; preds = %126, %118, %113
  %128 = load ptr, ptr %7, align 8, !tbaa !17
  %129 = getelementptr inbounds nuw %struct.H5O_fill_t, ptr %128, i32 0, i32 4
  %130 = load ptr, ptr %129, align 8, !tbaa !25
  %131 = icmp ne ptr %130, null
  br i1 %131, label %132, label %150

132:                                              ; preds = %127
  %133 = load ptr, ptr %7, align 8, !tbaa !17
  %134 = getelementptr inbounds nuw %struct.H5O_fill_t, ptr %133, i32 0, i32 4
  %135 = load ptr, ptr %134, align 8, !tbaa !25
  %136 = load ptr, ptr %8, align 8, !tbaa !17
  %137 = getelementptr inbounds nuw %struct.H5O_fill_t, ptr %136, i32 0, i32 4
  %138 = load ptr, ptr %137, align 8, !tbaa !25
  %139 = load ptr, ptr %7, align 8, !tbaa !17
  %140 = getelementptr inbounds nuw %struct.H5O_fill_t, ptr %139, i32 0, i32 3
  %141 = load i64, ptr %140, align 8, !tbaa !19
  %142 = call i32 @memcmp(ptr noundef %135, ptr noundef %138, i64 noundef %141) #12
  store i32 %142, ptr %9, align 4, !tbaa !8
  %143 = icmp ne i32 %142, 0
  br i1 %143, label %144, label %149

144:                                              ; preds = %132
  br label %145

145:                                              ; preds = %144
  %146 = load i32, ptr %9, align 4, !tbaa !8
  store i32 %146, ptr %10, align 4, !tbaa !8
  br label %199

147:                                              ; No predecessors!
  br label %148

148:                                              ; preds = %147
  br label %149

149:                                              ; preds = %148, %132
  br label %150

150:                                              ; preds = %149, %127
  %151 = load ptr, ptr %7, align 8, !tbaa !17
  %152 = getelementptr inbounds nuw %struct.H5O_fill_t, ptr %151, i32 0, i32 5
  %153 = load i32, ptr %152, align 8, !tbaa !26
  %154 = load ptr, ptr %8, align 8, !tbaa !17
  %155 = getelementptr inbounds nuw %struct.H5O_fill_t, ptr %154, i32 0, i32 5
  %156 = load i32, ptr %155, align 8, !tbaa !26
  %157 = icmp slt i32 %153, %156
  br i1 %157, label %158, label %162

158:                                              ; preds = %150
  br label %159

159:                                              ; preds = %158
  store i32 -1, ptr %10, align 4, !tbaa !8
  br label %199

160:                                              ; No predecessors!
  br label %161

161:                                              ; preds = %160
  br label %162

162:                                              ; preds = %161, %150
  %163 = load ptr, ptr %7, align 8, !tbaa !17
  %164 = getelementptr inbounds nuw %struct.H5O_fill_t, ptr %163, i32 0, i32 5
  %165 = load i32, ptr %164, align 8, !tbaa !26
  %166 = load ptr, ptr %8, align 8, !tbaa !17
  %167 = getelementptr inbounds nuw %struct.H5O_fill_t, ptr %166, i32 0, i32 5
  %168 = load i32, ptr %167, align 8, !tbaa !26
  %169 = icmp sgt i32 %165, %168
  br i1 %169, label %170, label %174

170:                                              ; preds = %162
  br label %171

171:                                              ; preds = %170
  store i32 1, ptr %10, align 4, !tbaa !8
  br label %199

172:                                              ; No predecessors!
  br label %173

173:                                              ; preds = %172
  br label %174

174:                                              ; preds = %173, %162
  %175 = load ptr, ptr %7, align 8, !tbaa !17
  %176 = getelementptr inbounds nuw %struct.H5O_fill_t, ptr %175, i32 0, i32 6
  %177 = load i32, ptr %176, align 4, !tbaa !27
  %178 = load ptr, ptr %8, align 8, !tbaa !17
  %179 = getelementptr inbounds nuw %struct.H5O_fill_t, ptr %178, i32 0, i32 6
  %180 = load i32, ptr %179, align 4, !tbaa !27
  %181 = icmp slt i32 %177, %180
  br i1 %181, label %182, label %186

182:                                              ; preds = %174
  br label %183

183:                                              ; preds = %182
  store i32 -1, ptr %10, align 4, !tbaa !8
  br label %199

184:                                              ; No predecessors!
  br label %185

185:                                              ; preds = %184
  br label %186

186:                                              ; preds = %185, %174
  %187 = load ptr, ptr %7, align 8, !tbaa !17
  %188 = getelementptr inbounds nuw %struct.H5O_fill_t, ptr %187, i32 0, i32 6
  %189 = load i32, ptr %188, align 4, !tbaa !27
  %190 = load ptr, ptr %8, align 8, !tbaa !17
  %191 = getelementptr inbounds nuw %struct.H5O_fill_t, ptr %190, i32 0, i32 6
  %192 = load i32, ptr %191, align 4, !tbaa !27
  %193 = icmp sgt i32 %189, %192
  br i1 %193, label %194, label %198

194:                                              ; preds = %186
  br label %195

195:                                              ; preds = %194
  store i32 1, ptr %10, align 4, !tbaa !8
  br label %199

196:                                              ; No predecessors!
  br label %197

197:                                              ; preds = %196
  br label %198

198:                                              ; preds = %197, %186
  br label %199

199:                                              ; preds = %198, %195, %183, %171, %159, %145, %124, %110, %94, %76, %62, %48, %36
  br label %200

200:                                              ; preds = %199, %19
  %201 = load i32, ptr %10, align 4, !tbaa !8
  call void @llvm.lifetime.end.p0(i64 4, ptr %10) #11
  call void @llvm.lifetime.end.p0(i64 4, ptr %9) #11
  call void @llvm.lifetime.end.p0(i64 8, ptr %8) #11
  call void @llvm.lifetime.end.p0(i64 8, ptr %7) #11
  ret i32 %201
}