; Function Attrs: nounwind uwtable
define i32 @H5P_fill_value_cmp(ptr noundef readonly captures(none) %0, ptr noundef readonly captures(none) %1, i64 %2) #0 {
  %4 = load i8, ptr @H5P_init_g, align 1, !tbaa !3, !range !7, !noundef !8
  %5 = trunc nuw i8 %4 to i1
  %6 = load i8, ptr @H5_libterm_g, align 1, !range !7
  %7 = trunc nuw i8 %6 to i1
  %8 = xor i1 %7, true
  %9 = select i1 %5, i1 true, i1 %8
  br i1 %9, label %10, label %53, !prof !9

10:                                               ; preds = %3
  %11 = getelementptr inbounds nuw i8, ptr %0, i64 56
  %12 = load i64, ptr %11, align 8, !tbaa !12
  %13 = getelementptr inbounds nuw i8, ptr %1, i64 56
  %14 = load i64, ptr %13, align 8, !tbaa !12
  %15 = icmp slt i64 %12, %14
  br i1 %15, label %53, label %16

16:                                               ; preds = %10
  %17 = icmp sgt i64 %12, %14
  br i1 %17, label %53, label %18

18:                                               ; preds = %16
  %19 = getelementptr inbounds nuw i8, ptr %0, i64 48
  %20 = load ptr, ptr %19, align 8, !tbaa !19
  %21 = icmp eq ptr %20, null
  %22 = getelementptr inbounds nuw i8, ptr %1, i64 48
  %23 = load ptr, ptr %22, align 8, !tbaa !19
  %.not = icmp eq ptr %23, null
  br i1 %21, label %24, label %25

24:                                               ; preds = %18
  br i1 %.not, label %.thread48, label %53

25:                                               ; preds = %18
  br i1 %.not, label %53, label %26

26:                                               ; preds = %25
  %27 = tail call i32 @H5T_cmp(ptr noundef nonnull %20, ptr noundef nonnull %23, i1 noundef zeroext false) #12
  %.not43 = icmp eq i32 %27, 0
  br i1 %.not43, label %.thread48, label %53

.thread48:                                        ; preds = %24, %26
  %28 = getelementptr inbounds nuw i8, ptr %0, i64 64
  %29 = load ptr, ptr %28, align 8, !tbaa !20
  %30 = icmp eq ptr %29, null
  %31 = getelementptr inbounds nuw i8, ptr %1, i64 64
  %32 = load ptr, ptr %31, align 8, !tbaa !20
  %.not44 = icmp eq ptr %32, null
  br i1 %30, label %33, label %34

33:                                               ; preds = %.thread48
  br i1 %.not44, label %.thread50, label %53

34:                                               ; preds = %.thread48
  br i1 %.not44, label %53, label %35

35:                                               ; preds = %34
  %36 = load i64, ptr %11, align 8, !tbaa !12
  %37 = tail call i32 @memcmp(ptr noundef nonnull %29, ptr noundef nonnull %32, i64 noundef %36) #13
  %.not47 = icmp eq i32 %37, 0
  br i1 %.not47, label %.thread50, label %53

.thread50:                                        ; preds = %33, %35
  %38 = getelementptr inbounds nuw i8, ptr %0, i64 72
  %39 = load i32, ptr %38, align 8, !tbaa !21
  %40 = getelementptr inbounds nuw i8, ptr %1, i64 72
  %41 = load i32, ptr %40, align 8, !tbaa !21
  %42 = icmp slt i32 %39, %41
  br i1 %42, label %53, label %43

43:                                               ; preds = %.thread50
  %44 = icmp sgt i32 %39, %41
  br i1 %44, label %53, label %45

45:                                               ; preds = %43
  %46 = getelementptr inbounds nuw i8, ptr %0, i64 76
  %47 = load i32, ptr %46, align 4, !tbaa !22
  %48 = getelementptr inbounds nuw i8, ptr %1, i64 76
  %49 = load i32, ptr %48, align 4, !tbaa !22
  %50 = icmp slt i32 %47, %49
  br i1 %50, label %53, label %51

51:                                               ; preds = %45
  %52 = icmp sgt i32 %47, %49
  %spec.select = zext i1 %52 to i32
  br label %53

53:                                               ; preds = %51, %45, %43, %.thread50, %35, %34, %33, %26, %25, %24, %16, %10, %3
  %.0 = phi i32 [ 0, %3 ], [ -1, %10 ], [ 1, %16 ], [ -1, %24 ], [ 1, %25 ], [ %27, %26 ], [ -1, %33 ], [ 1, %34 ], [ %37, %35 ], [ -1, %.thread50 ], [ 1, %43 ], [ -1, %45 ], [ %spec.select, %51 ]
  ret i32 %.0
}